target datalayout = "e-m:e-p270:32:32-p271:32:32-p272:64:64-i64:64-i128:128-f80:128-n8:16:32:64-S128"
target triple = "x86_64-pc-linux-gnu"

%struct.b2IslandArray = type { ptr, i32, i32 }
%struct.b2IslandSimArray = type { ptr, i32, i32 }
%struct.b2Island = type { i32, i32, i32, i32, i32, i32, i32, i32, i32, i32, i32, i32, i32, i32 }
%struct.b2World = type { %struct.b2ArenaAllocator, %struct.b2BroadPhase, %struct.b2ConstraintGraph, %struct.b2IdPool, %struct.b2BodyArray, %struct.b2IdPool, %struct.b2SolverSetArray, %struct.b2IdPool, %struct.b2JointArray, %struct.b2IdPool, %struct.b2ContactArray, %struct.b2IdPool, %struct.b2IslandArray, %struct.b2IdPool, %struct.b2IdPool, %struct.b2ShapeArray, %struct.b2ChainShapeArray, %struct.b2SensorArray, %struct.b2TaskContextArray, %struct.b2SensorTaskContextArray, %struct.b2BodyMoveEventArray, %struct.b2SensorBeginTouchEventArray, %struct.b2ContactBeginTouchEventArray, [2 x %struct.b2SensorEndTouchEventArray], [2 x %struct.b2ContactEndTouchEventArray], i32, %struct.b2ContactHitEventArray, %struct.b2BitSet, %struct.b2BitSet, %struct.b2BitSet, i64, i32, %struct.b2Vec2, float, float, float, float, float, float, float, float, ptr, ptr, i16, %struct.b2Profile, ptr, ptr, ptr, ptr, i32, ptr, ptr, ptr, ptr, ptr, float, i32, i32, i16, i8, i8, i8, i8, i8, i8 }
%struct.b2ArenaAllocator = type { ptr, i32, i32, i32, i32, %struct.b2ArenaEntryArray }
%struct.b2ArenaEntryArray = type { ptr, i32, i32 }
%struct.b2BroadPhase = type { [3 x %struct.b2DynamicTree], i32, %struct.b2HashSet, %struct.b2IntArray, ptr, ptr, i32, %struct.b2AtomicInt, %struct.b2HashSet }
%struct.b2DynamicTree = type { ptr, i32, i32, i32, i32, i32, ptr, ptr, ptr, ptr, i32 }
%struct.b2IntArray = type { ptr, i32, i32 }
%struct.b2AtomicInt = type { i32 }
%struct.b2HashSet = type { ptr, i32, i32 }
%struct.b2ConstraintGraph = type { [12 x %struct.b2GraphColor] }
%struct.b2GraphColor = type { %struct.b2BitSet, %struct.b2ContactSimArray, %struct.b2JointSimArray, %union.anon }
%struct.b2ContactSimArray = type { ptr, i32, i32 }
%struct.b2JointSimArray = type { ptr, i32, i32 }
%union.anon = type { ptr }
%struct.b2BodyArray = type { ptr, i32, i32 }
%struct.b2SolverSetArray = type { ptr, i32, i32 }
%struct.b2JointArray = type { ptr, i32, i32 }
%struct.b2ContactArray = type { ptr, i32, i32 }
%struct.b2IdPool = type { %struct.b2IntArray, i32 }
%struct.b2ShapeArray = type { ptr, i32, i32 }
%struct.b2ChainShapeArray = type { ptr, i32, i32 }
%struct.b2SensorArray = type { ptr, i32, i32 }
%struct.b2TaskContextArray = type { ptr, i32, i32 }
%struct.b2SensorTaskContextArray = type { ptr, i32, i32 }
%struct.b2BodyMoveEventArray = type { ptr, i32, i32 }
%struct.b2SensorBeginTouchEventArray = type { ptr, i32, i32 }
%struct.b2ContactBeginTouchEventArray = type { ptr, i32, i32 }
%struct.b2SensorEndTouchEventArray = type { ptr, i32, i32 }
%struct.b2ContactEndTouchEventArray = type { ptr, i32, i32 }
%struct.b2ContactHitEventArray = type { ptr, i32, i32 }
%struct.b2BitSet = type { ptr, i32, i32 }
%struct.b2Vec2 = type { float, float }
%struct.b2Profile = type { float, float, float, float, float, float, float, float, float, float, float, float, float, float, float, float, float, float, float, float, float, float }
%struct.b2SolverSet = type { %struct.b2BodySimArray, %struct.b2BodyStateArray, %struct.b2JointSimArray, %struct.b2ContactSimArray, %struct.b2IslandSimArray, i32 }
%struct.b2BodySimArray = type { ptr, i32, i32 }
%struct.b2BodyStateArray = type { ptr, i32, i32 }
%struct.b2IslandSim = type { i32 }

; Function Attrs: nounwind uwtable
define hidden void @b2IslandSimArray_Reserve(ptr noundef %0, i32 noundef %1) #0 {
  %3 = alloca ptr, align 8
  %4 = alloca i32, align 4
  store ptr %0, ptr %3, align 8, !tbaa !12
  store i32 %1, ptr %4, align 4, !tbaa !3
  %5 = load i32, ptr %4, align 4, !tbaa !3
  %6 = load ptr, ptr %3, align 8, !tbaa !12
  %7 = getelementptr inbounds nuw %struct.b2IslandSimArray, ptr %6, i32 0, i32 2
  %8 = load i32, ptr %7, align 4, !tbaa !17
  %9 = icmp sle i32 %5, %8
  br i1 %9, label %10, label %11

10:                                               ; preds = %2
  br label %31

11:                                               ; preds = %2
  %12 = load ptr, ptr %3, align 8, !tbaa !12
  %13 = getelementptr inbounds nuw %struct.b2IslandSimArray, ptr %12, i32 0, i32 0
  %14 = load ptr, ptr %13, align 8, !tbaa !14
  %15 = load ptr, ptr %3, align 8, !tbaa !12
  %16 = getelementptr inbounds nuw %struct.b2IslandSimArray, ptr %15, i32 0, i32 2
  %17 = load i32, ptr %16, align 4, !tbaa !17
  %18 = sext i32 %17 to i64
  %19 = mul i64 %18, 4
  %20 = trunc i64 %19 to i32
  %21 = load i32, ptr %4, align 4, !tbaa !3
  %22 = sext i32 %21 to i64
  %23 = mul i64 %22, 4
  %24 = trunc i64 %23 to i32
  %25 = call ptr @b2GrowAlloc(ptr noundef %14, i32 noundef %20, i32 noundef %24)
  %26 = load ptr, ptr %3, align 8, !tbaa !12
  %27 = getelementptr inbounds nuw %struct.b2IslandSimArray, ptr %26, i32 0, i32 0
  store ptr %25, ptr %27, align 8, !tbaa !14
  %28 = load i32, ptr %4, align 4, !tbaa !3
  %29 = load ptr, ptr %3, align 8, !tbaa !12
  %30 = getelementptr inbounds nuw %struct.b2IslandSimArray, ptr %29, i32 0, i32 2
  store i32 %28, ptr %30, align 4, !tbaa !17
  br label %31

31:                                               ; preds = %11, %10
  ret void
}

; Function Attrs: nounwind uwtable
define hidden void @b2IslandArray_Reserve(ptr noundef %0, i32 noundef %1) #0 {
  %3 = alloca ptr, align 8
  %4 = alloca i32, align 4
  store ptr %0, ptr %3, align 8, !tbaa !12
  store i32 %1, ptr %4, align 4, !tbaa !3
  %5 = load i32, ptr %4, align 4, !tbaa !3
  %6 = load ptr, ptr %3, align 8, !tbaa !12
  %7 = getelementptr inbounds nuw %struct.b2IslandArray, ptr %6, i32 0, i32 2
  %8 = load i32, ptr %7, align 4, !tbaa !11
  %9 = icmp sle i32 %5, %8
  br i1 %9, label %10, label %11

10:                                               ; preds = %2
  br label %31

11:                                               ; preds = %2
  %12 = load ptr, ptr %3, align 8, !tbaa !12
  %13 = getelementptr inbounds nuw %struct.b2IslandArray, ptr %12, i32 0, i32 0
  %14 = load ptr, ptr %13, align 8, !tbaa !7
  %15 = load ptr, ptr %3, align 8, !tbaa !12
  %16 = getelementptr inbounds nuw %struct.b2IslandArray, ptr %15, i32 0, i32 2
  %17 = load i32, ptr %16, align 4, !tbaa !11
  %18 = sext i32 %17 to i64
  %19 = mul i64 %18, 56
  %20 = trunc i64 %19 to i32
  %21 = load i32, ptr %4, align 4, !tbaa !3
  %22 = sext i32 %21 to i64
  %23 = mul i64 %22, 56
  %24 = trunc i64 %23 to i32
  %25 = call ptr @b2GrowAlloc(ptr noundef %14, i32 noundef %20, i32 noundef %24)
  %26 = load ptr, ptr %3, align 8, !tbaa !12
  %27 = getelementptr inbounds nuw %struct.b2IslandArray, ptr %26, i32 0, i32 0
  store ptr %25, ptr %27, align 8, !tbaa !7
  %28 = load i32, ptr %4, align 4, !tbaa !3
  %29 = load ptr, ptr %3, align 8, !tbaa !12
  %30 = getelementptr inbounds nuw %struct.b2IslandArray, ptr %29, i32 0, i32 2
  store i32 %28, ptr %30, align 4, !tbaa !11
  br label %31

31:                                               ; preds = %11, %10
  ret void
}

; Function Attrs: inlinehint nounwind uwtable
define internal ptr @b2IslandSimArray_Add(ptr noundef %0) #4 {
  %2 = alloca ptr, align 8
  %3 = alloca i32, align 4
  store ptr %0, ptr %2, align 8, !tbaa !12
  %4 = load ptr, ptr %2, align 8, !tbaa !12
  %5 = getelementptr inbounds nuw %struct.b2IslandSimArray, ptr %4, i32 0, i32 1
  %6 = load i32, ptr %5, align 8, !tbaa !18
  %7 = load ptr, ptr %2, align 8, !tbaa !12
  %8 = getelementptr inbounds nuw %struct.b2IslandSimArray, ptr %7, i32 0, i32 2
  %9 = load i32, ptr %8, align 4, !tbaa !17
  %10 = icmp eq i32 %6, %9
  br i1 %10, label %11, label %30

11:                                               ; preds = %1
  call void @llvm.lifetime.start.p0(i64 4, ptr %3) #6
  %12 = load ptr, ptr %2, align 8, !tbaa !12
  %13 = getelementptr inbounds nuw %struct.b2IslandSimArray, ptr %12, i32 0, i32 2
  %14 = load i32, ptr %13, align 4, !tbaa !17
  %15 = icmp slt i32 %14, 2
  br i1 %15, label %16, label %17

16:                                               ; preds = %11
  br label %26

17:                                               ; preds = %11
  %18 = load ptr, ptr %2, align 8, !tbaa !12
  %19 = getelementptr inbounds nuw %struct.b2IslandSimArray, ptr %18, i32 0, i32 2
  %20 = load i32, ptr %19, align 4, !tbaa !17
  %21 = load ptr, ptr %2, align 8, !tbaa !12
  %22 = getelementptr inbounds nuw %struct.b2IslandSimArray, ptr %21, i32 0, i32 2
  %23 = load i32, ptr %22, align 4, !tbaa !17
  %24 = ashr i32 %23, 1
  %25 = add nsw i32 %20, %24
  br label %26

26:                                               ; preds = %17, %16
  %27 = phi i32 [ 2, %16 ], [ %25, %17 ]
  store i32 %27, ptr %3, align 4, !tbaa !3
  %28 = load ptr, ptr %2, align 8, !tbaa !12
  %29 = load i32, ptr %3, align 4, !tbaa !3
  call void @b2IslandSimArray_Reserve(ptr noundef %28, i32 noundef %29)
  call void @llvm.lifetime.end.p0(i64 4, ptr %3) #6
  br label %30

30:                                               ; preds = %26, %1
  %31 = load ptr, ptr %2, align 8, !tbaa !12
  %32 = getelementptr inbounds nuw %struct.b2IslandSimArray, ptr %31, i32 0, i32 1
  %33 = load i32, ptr %32, align 8, !tbaa !18
  %34 = add nsw i32 %33, 1
  store i32 %34, ptr %32, align 8, !tbaa !18
  %35 = load ptr, ptr %2, align 8, !tbaa !12
  %36 = getelementptr inbounds nuw %struct.b2IslandSimArray, ptr %35, i32 0, i32 0
  %37 = load ptr, ptr %36, align 8, !tbaa !14
  %38 = load ptr, ptr %2, align 8, !tbaa !12
  %39 = getelementptr inbounds nuw %struct.b2IslandSimArray, ptr %38, i32 0, i32 1
  %40 = load i32, ptr %39, align 8, !tbaa !18
  %41 = sub nsw i32 %40, 1
  %42 = sext i32 %41 to i64
  %43 = getelementptr inbounds %struct.b2IslandSim, ptr %37, i64 %42
  ret ptr %43
}

; Function Attrs: inlinehint nounwind uwtable
define internal ptr @b2IslandArray_Get(ptr noundef %0, i32 noundef %1) #4 {
  %3 = alloca ptr, align 8
  %4 = alloca i32, align 4
  store ptr %0, ptr %3, align 8, !tbaa !12
  store i32 %1, ptr %4, align 4, !tbaa !3
  %5 = load ptr, ptr %3, align 8, !tbaa !12
  %6 = getelementptr inbounds nuw %struct.b2IslandArray, ptr %5, i32 0, i32 0
  %7 = load ptr, ptr %6, align 8, !tbaa !7
  %8 = load i32, ptr %4, align 4, !tbaa !3
  %9 = sext i32 %8 to i64
  %10 = getelementptr inbounds %struct.b2Island, ptr %7, i64 %9
  ret ptr %10
}

; Function Attrs: inlinehint nounwind uwtable
define internal ptr @b2SolverSetArray_Get(ptr noundef %0, i32 noundef %1) #4 {
  %3 = alloca ptr, align 8
  %4 = alloca i32, align 4
  store ptr %0, ptr %3, align 8, !tbaa !12
  store i32 %1, ptr %4, align 4, !tbaa !3
  %5 = load ptr, ptr %3, align 8, !tbaa !12
  %6 = getelementptr inbounds nuw %struct.b2SolverSetArray, ptr %5, i32 0, i32 0
  %7 = load ptr, ptr %6, align 8, !tbaa !102
  %8 = load i32, ptr %4, align 4, !tbaa !3
  %9 = sext i32 %8 to i64
  %10 = getelementptr inbounds %struct.b2SolverSet, ptr %7, i64 %9
  ret ptr %10
}

; Function Attrs: inlinehint nounwind uwtable
define internal void @b2IslandArray_Push(ptr noundef %0, ptr noundef byval(%struct.b2Island) align 8 %1) #4 {
  %3 = alloca ptr, align 8
  %4 = alloca i32, align 4
  store ptr %0, ptr %3, align 8, !tbaa !12
  %5 = load ptr, ptr %3, align 8, !tbaa !12
  %6 = getelementptr inbounds nuw %struct.b2IslandArray, ptr %5, i32 0, i32 1
  %7 = load i32, ptr %6, align 8, !tbaa !13
  %8 = load ptr, ptr %3, align 8, !tbaa !12
  %9 = getelementptr inbounds nuw %struct.b2IslandArray, ptr %8, i32 0, i32 2
  %10 = load i32, ptr %9, align 4, !tbaa !11
  %11 = icmp eq i32 %7, %10
  br i1 %11, label %12, label %31

12:                                               ; preds = %2
  call void @llvm.lifetime.start.p0(i64 4, ptr %4) #6
  %13 = load ptr, ptr %3, align 8, !tbaa !12
  %14 = getelementptr inbounds nuw %struct.b2IslandArray, ptr %13, i32 0, i32 2
  %15 = load i32, ptr %14, align 4, !tbaa !11
  %16 = icmp slt i32 %15, 2
  br i1 %16, label %17, label %18

17:                                               ; preds = %12
  br label %27

18:                                               ; preds = %12
  %19 = load ptr, ptr %3, align 8, !tbaa !12
  %20 = getelementptr inbounds nuw %struct.b2IslandArray, ptr %19, i32 0, i32 2
  %21 = load i32, ptr %20, align 4, !tbaa !11
  %22 = load ptr, ptr %3, align 8, !tbaa !12
  %23 = getelementptr inbounds nuw %struct.b2IslandArray, ptr %22, i32 0, i32 2
  %24 = load i32, ptr %23, align 4, !tbaa !11
  %25 = ashr i32 %24, 1
  %26 = add nsw i32 %21, %25
  br label %27

27:                                               ; preds = %18, %17
  %28 = phi i32 [ 2, %17 ], [ %26, %18 ]
  store i32 %28, ptr %4, align 4, !tbaa !3
  %29 = load ptr, ptr %3, align 8, !tbaa !12
  %30 = load i32, ptr %4, align 4, !tbaa !3
  call void @b2IslandArray_Reserve(ptr noundef %29, i32 noundef %30)
  call void @llvm.lifetime.end.p0(i64 4, ptr %4) #6
  br label %31

31:                                               ; preds = %27, %2
  %32 = load ptr, ptr %3, align 8, !tbaa !12
  %33 = getelementptr inbounds nuw %struct.b2IslandArray, ptr %32, i32 0, i32 0
  %34 = load ptr, ptr %33, align 8, !tbaa !7
  %35 = load ptr, ptr %3, align 8, !tbaa !12
  %36 = getelementptr inbounds nuw %struct.b2IslandArray, ptr %35, i32 0, i32 1
  %37 = load i32, ptr %36, align 8, !tbaa !13
  %38 = sext i32 %37 to i64
  %39 = getelementptr inbounds %struct.b2Island, ptr %34, i64 %38
  call void @llvm.memcpy.p0.p0.i64(ptr align 4 %39, ptr align 8 %1, i64 56, i1 false), !tbaa.struct !101
  %40 = load ptr, ptr %3, align 8, !tbaa !12
  %41 = getelementptr inbounds nuw %struct.b2IslandArray, ptr %40, i32 0, i32 1
  %42 = load i32, ptr %41, align 8, !tbaa !13
  %43 = add nsw i32 %42, 1
  store i32 %43, ptr %41, align 8, !tbaa !13
  ret void
}

; Function Attrs: nounwind uwtable
define hidden ptr @b2CreateIsland(ptr noundef %0, i32 noundef %1) #0 {
  %3 = alloca ptr, align 8
  %4 = alloca i32, align 4
  %5 = alloca i32, align 4
  %6 = alloca %struct.b2Island, align 8
  %7 = alloca ptr, align 8
  %8 = alloca ptr, align 8
  %9 = alloca ptr, align 8
  store ptr %0, ptr %3, align 8, !tbaa !19
  store i32 %1, ptr %4, align 4, !tbaa !3
  call void @llvm.lifetime.start.p0(i64 4, ptr %5) #6
  %10 = load ptr, ptr %3, align 8, !tbaa !19
  %11 = getelementptr inbounds nuw %struct.b2World, ptr %10, i32 0, i32 11
  %12 = call i32 @b2AllocId(ptr noundef %11)
  store i32 %12, ptr %5, align 4, !tbaa !3
  %13 = load i32, ptr %5, align 4, !tbaa !3
  %14 = load ptr, ptr %3, align 8, !tbaa !19
  %15 = getelementptr inbounds nuw %struct.b2World, ptr %14, i32 0, i32 12
  %16 = getelementptr inbounds nuw %struct.b2IslandArray, ptr %15, i32 0, i32 1
  %17 = load i32, ptr %16, align 8, !tbaa !21
  %18 = icmp eq i32 %13, %17
  br i1 %18, label %19, label %22

19:                                               ; preds = %2
  call void @llvm.lifetime.start.p0(i64 56, ptr %6) #6
  call void @llvm.memset.p0.i64(ptr align 4 %6, i8 0, i64 56, i1 false)
  %20 = load ptr, ptr %3, align 8, !tbaa !19
  %21 = getelementptr inbounds nuw %struct.b2World, ptr %20, i32 0, i32 12
  call void @b2IslandArray_Push(ptr noundef %21, ptr noundef byval(%struct.b2Island) align 8 %6)
  call void @llvm.lifetime.end.p0(i64 56, ptr %6) #6
  br label %23

22:                                               ; preds = %2
  br label %23

23:                                               ; preds = %22, %19
  call void @llvm.lifetime.start.p0(i64 8, ptr %7) #6
  %24 = load ptr, ptr %3, align 8, !tbaa !19
  %25 = getelementptr inbounds nuw %struct.b2World, ptr %24, i32 0, i32 6
  %26 = load i32, ptr %4, align 4, !tbaa !3
  %27 = call ptr @b2SolverSetArray_Get(ptr noundef %25, i32 noundef %26)
  store ptr %27, ptr %7, align 8, !tbaa !71
  call void @llvm.lifetime.start.p0(i64 8, ptr %8) #6
  %28 = load ptr, ptr %3, align 8, !tbaa !19
  %29 = getelementptr inbounds nuw %struct.b2World, ptr %28, i32 0, i32 12
  %30 = load i32, ptr %5, align 4, !tbaa !3
  %31 = call ptr @b2IslandArray_Get(ptr noundef %29, i32 noundef %30)
  store ptr %31, ptr %8, align 8, !tbaa !72
  %32 = load i32, ptr %4, align 4, !tbaa !3
  %33 = load ptr, ptr %8, align 8, !tbaa !72
  %34 = getelementptr inbounds nuw %struct.b2Island, ptr %33, i32 0, i32 0
  store i32 %32, ptr %34, align 4, !tbaa !73
  %35 = load ptr, ptr %7, align 8, !tbaa !71
  %36 = getelementptr inbounds nuw %struct.b2SolverSet, ptr %35, i32 0, i32 4
  %37 = getelementptr inbounds nuw %struct.b2IslandSimArray, ptr %36, i32 0, i32 1
  %38 = load i32, ptr %37, align 8, !tbaa !75
  %39 = load ptr, ptr %8, align 8, !tbaa !72
  %40 = getelementptr inbounds nuw %struct.b2Island, ptr %39, i32 0, i32 1
  store i32 %38, ptr %40, align 4, !tbaa !85
  %41 = load i32, ptr %5, align 4, !tbaa !3
  %42 = load ptr, ptr %8, align 8, !tbaa !72
  %43 = getelementptr inbounds nuw %struct.b2Island, ptr %42, i32 0, i32 2
  store i32 %41, ptr %43, align 4, !tbaa !86
  %44 = load ptr, ptr %8, align 8, !tbaa !72
  %45 = getelementptr inbounds nuw %struct.b2Island, ptr %44, i32 0, i32 3
  store i32 -1, ptr %45, align 4, !tbaa !87
  %46 = load ptr, ptr %8, align 8, !tbaa !72
  %47 = getelementptr inbounds nuw %struct.b2Island, ptr %46, i32 0, i32 4
  store i32 -1, ptr %47, align 4, !tbaa !88
  %48 = load ptr, ptr %8, align 8, !tbaa !72
  %49 = getelementptr inbounds nuw %struct.b2Island, ptr %48, i32 0, i32 5
  store i32 0, ptr %49, align 4, !tbaa !89
  %50 = load ptr, ptr %8, align 8, !tbaa !72
  %51 = getelementptr inbounds nuw %struct.b2Island, ptr %50, i32 0, i32 6
  store i32 -1, ptr %51, align 4, !tbaa !90
  %52 = load ptr, ptr %8, align 8, !tbaa !72
  %53 = getelementptr inbounds nuw %struct.b2Island, ptr %52, i32 0, i32 7
  store i32 -1, ptr %53, align 4, !tbaa !91
  %54 = load ptr, ptr %8, align 8, !tbaa !72
  %55 = getelementptr inbounds nuw %struct.b2Island, ptr %54, i32 0, i32 8
  store i32 0, ptr %55, align 4, !tbaa !92
  %56 = load ptr, ptr %8, align 8, !tbaa !72
  %57 = getelementptr inbounds nuw %struct.b2Island, ptr %56, i32 0, i32 9
  store i32 -1, ptr %57, align 4, !tbaa !93
  %58 = load ptr, ptr %8, align 8, !tbaa !72
  %59 = getelementptr inbounds nuw %struct.b2Island, ptr %58, i32 0, i32 10
  store i32 -1, ptr %59, align 4, !tbaa !94
  %60 = load ptr, ptr %8, align 8, !tbaa !72
  %61 = getelementptr inbounds nuw %struct.b2Island, ptr %60, i32 0, i32 11
  store i32 0, ptr %61, align 4, !tbaa !95
  %62 = load ptr, ptr %8, align 8, !tbaa !72
  %63 = getelementptr inbounds nuw %struct.b2Island, ptr %62, i32 0, i32 12
  store i32 -1, ptr %63, align 4, !tbaa !96
  %64 = load ptr, ptr %8, align 8, !tbaa !72
  %65 = getelementptr inbounds nuw %struct.b2Island, ptr %64, i32 0, i32 13
  store i32 0, ptr %65, align 4, !tbaa !97
  call void @llvm.lifetime.start.p0(i64 8, ptr %9) #6
  %66 = load ptr, ptr %7, align 8, !tbaa !71
  %67 = getelementptr inbounds nuw %struct.b2SolverSet, ptr %66, i32 0, i32 4
  %68 = call ptr @b2IslandSimArray_Add(ptr noundef %67)
  store ptr %68, ptr %9, align 8, !tbaa !98
  %69 = load i32, ptr %5, align 4, !tbaa !3
  %70 = load ptr, ptr %9, align 8, !tbaa !98
  %71 = getelementptr inbounds nuw %struct.b2IslandSim, ptr %70, i32 0, i32 0
  store i32 %69, ptr %71, align 4, !tbaa !99
  %72 = load ptr, ptr %8, align 8, !tbaa !72
  call void @llvm.lifetime.end.p0(i64 8, ptr %9) #6
  call void @llvm.lifetime.end.p0(i64 8, ptr %8) #6
  call void @llvm.lifetime.end.p0(i64 8, ptr %7) #6
  call void @llvm.lifetime.end.p0(i64 4, ptr %5) #6
  ret ptr %72
}