; Function Attrs: nounwind uwtable
define hidden noundef ptr @b2CreateIsland(ptr noundef %0, i32 noundef %1) local_unnamed_addr #0 {
  %3 = getelementptr inbounds nuw i8, ptr %0, i64 1168
  %4 = tail call i32 @b2AllocId(ptr noundef nonnull %3) #5
  %5 = getelementptr inbounds nuw i8, ptr %0, i64 1192
  %6 = getelementptr inbounds nuw i8, ptr %0, i64 1200
  %7 = load i32, ptr %6, align 8, !tbaa !15
  %8 = icmp eq i32 %4, %7
  br i1 %8, label %9, label %28

9:                                                ; preds = %2
  %10 = getelementptr inbounds nuw i8, ptr %0, i64 1204
  %11 = load i32, ptr %10, align 4, !tbaa !3
  %12 = icmp eq i32 %4, %11
  br i1 %12, label %13, label %.b2IslandArray_Reserve.exit_crit_edge.i

.b2IslandArray_Reserve.exit_crit_edge.i:          ; preds = %9
  %.pre.i = load ptr, ptr %5, align 8, !tbaa !10
  br label %b2IslandArray_Push.exit

13:                                               ; preds = %9
  %14 = icmp slt i32 %4, 2
  %15 = lshr i32 %4, 1
  %16 = add nuw nsw i32 %15, %4
  %17 = select i1 %14, i32 2, i32 %16
  %.not.i.i = icmp sgt i32 %17, %4
  %.pre9.i = load ptr, ptr %5, align 8, !tbaa !10
  br i1 %.not.i.i, label %18, label %b2IslandArray_Push.exit

18:                                               ; preds = %13
  %19 = mul i32 %4, 56
  %20 = mul i32 %17, 56
  %21 = tail call ptr @b2GrowAlloc(ptr noundef %.pre9.i, i32 noundef %19, i32 noundef %20) #5
  store ptr %21, ptr %5, align 8, !tbaa !10
  store i32 %17, ptr %10, align 4, !tbaa !3
  %.pre10.i = load i32, ptr %6, align 8, !tbaa !65
  br label %b2IslandArray_Push.exit

b2IslandArray_Push.exit:                          ; preds = %.b2IslandArray_Reserve.exit_crit_edge.i, %13, %18
  %22 = phi i32 [ %4, %.b2IslandArray_Reserve.exit_crit_edge.i ], [ %.pre10.i, %18 ], [ %4, %13 ]
  %23 = phi ptr [ %.pre.i, %.b2IslandArray_Reserve.exit_crit_edge.i ], [ %21, %18 ], [ %.pre9.i, %13 ]
  %24 = sext i32 %22 to i64
  %25 = getelementptr inbounds %struct.b2Island, ptr %23, i64 %24
  tail call void @llvm.memset.p0.i64(ptr noundef nonnull align 4 dereferenceable(56) %25, i8 0, i64 56, i1 false)
  %26 = load i32, ptr %6, align 8, !tbaa !65
  %27 = add nsw i32 %26, 1
  store i32 %27, ptr %6, align 8, !tbaa !65
  br label %28

28:                                               ; preds = %2, %b2IslandArray_Push.exit
  %29 = getelementptr inbounds nuw i8, ptr %0, i64 1072
  %.val = load ptr, ptr %29, align 8, !tbaa !66
  %30 = sext i32 %1 to i64
  %31 = getelementptr inbounds %struct.b2SolverSet, ptr %.val, i64 %30
  %.val28 = load ptr, ptr %5, align 8, !tbaa !10
  %32 = sext i32 %4 to i64
  %33 = getelementptr inbounds %struct.b2Island, ptr %.val28, i64 %32
  store i32 %1, ptr %33, align 4, !tbaa !67
  %34 = getelementptr inbounds nuw i8, ptr %31, i64 64
  %35 = getelementptr inbounds nuw i8, ptr %31, i64 72
  %36 = load i32, ptr %35, align 8, !tbaa !69
  %37 = getelementptr inbounds nuw i8, ptr %33, i64 4
  store i32 %36, ptr %37, align 4, !tbaa !79
  %38 = getelementptr inbounds nuw i8, ptr %33, i64 8
  store i32 %4, ptr %38, align 4, !tbaa !80
  %39 = getelementptr inbounds nuw i8, ptr %33, i64 12
  store i32 -1, ptr %39, align 4, !tbaa !81
  %40 = getelementptr inbounds nuw i8, ptr %33, i64 16
  store i32 -1, ptr %40, align 4, !tbaa !82
  %41 = getelementptr inbounds nuw i8, ptr %33, i64 20
  store i32 0, ptr %41, align 4, !tbaa !83
  %42 = getelementptr inbounds nuw i8, ptr %33, i64 24
  store i32 -1, ptr %42, align 4, !tbaa !84
  %43 = getelementptr inbounds nuw i8, ptr %33, i64 28
  store i32 -1, ptr %43, align 4, !tbaa !85
  %44 = getelementptr inbounds nuw i8, ptr %33, i64 32
  store i32 0, ptr %44, align 4, !tbaa !86
  %45 = getelementptr inbounds nuw i8, ptr %33, i64 36
  store i32 -1, ptr %45, align 4, !tbaa !87
  %46 = getelementptr inbounds nuw i8, ptr %33, i64 40
  store i32 -1, ptr %46, align 4, !tbaa !88
  %47 = getelementptr inbounds nuw i8, ptr %33, i64 44
  store i32 0, ptr %47, align 4, !tbaa !89
  %48 = getelementptr inbounds nuw i8, ptr %33, i64 48
  store i32 -1, ptr %48, align 4, !tbaa !90
  %49 = getelementptr inbounds nuw i8, ptr %33, i64 52
  store i32 0, ptr %49, align 4, !tbaa !91
  %50 = getelementptr inbounds nuw i8, ptr %31, i64 76
  %51 = load i32, ptr %50, align 4, !tbaa !11
  %52 = icmp eq i32 %36, %51
  br i1 %52, label %53, label %.b2IslandSimArray_Reserve.exit_crit_edge.i

.b2IslandSimArray_Reserve.exit_crit_edge.i:       ; preds = %28
  %.pre9.i29 = load ptr, ptr %34, align 8, !tbaa !14
  br label %b2IslandSimArray_Add.exit

53:                                               ; preds = %28
  %54 = icmp slt i32 %36, 2
  %55 = lshr i32 %36, 1
  %56 = add nuw nsw i32 %55, %36
  %57 = select i1 %54, i32 2, i32 %56
  %.not.i.i30 = icmp sgt i32 %57, %36
  %.pre10.i31 = load ptr, ptr %34, align 8, !tbaa !14
  br i1 %.not.i.i30, label %58, label %b2IslandSimArray_Add.exit

58:                                               ; preds = %53
  %59 = shl i32 %36, 2
  %60 = shl i32 %57, 2
  %61 = tail call ptr @b2GrowAlloc(ptr noundef %.pre10.i31, i32 noundef %59, i32 noundef %60) #5
  store ptr %61, ptr %34, align 8, !tbaa !14
  store i32 %57, ptr %50, align 4, !tbaa !11
  %.pre.i32 = load i32, ptr %35, align 8, !tbaa !92
  br label %b2IslandSimArray_Add.exit

b2IslandSimArray_Add.exit:                        ; preds = %.b2IslandSimArray_Reserve.exit_crit_edge.i, %53, %58
  %62 = phi ptr [ %61, %58 ], [ %.pre10.i31, %53 ], [ %.pre9.i29, %.b2IslandSimArray_Reserve.exit_crit_edge.i ]
  %63 = phi i32 [ %.pre.i32, %58 ], [ %36, %53 ], [ %36, %.b2IslandSimArray_Reserve.exit_crit_edge.i ]
  %64 = add nsw i32 %63, 1
  store i32 %64, ptr %35, align 8, !tbaa !92
  %65 = sext i32 %63 to i64
  %66 = getelementptr inbounds %struct.b2IslandSim, ptr %62, i64 %65
  store i32 %4, ptr %66, align 4, !tbaa !93
  ret ptr %33
}